target datalayout = "e-m:e-p270:32:32-p271:32:32-p272:64:64-i64:64-i128:128-f80:128-n8:16:32:64-S128"
target triple = "x86_64-pc-linux-gnu"

%struct.Splash = type { %struct.ImageFormat, [3 x %struct.DitherSettings], %struct.ImageFormat, [256 x i32], i32, i32, i32, i32, i32, ptr, i32, ptr, %struct.ImageRect, %struct.ImageFormat, ptr, i32, i32, i32, i32, i32, [256 x i32], i32, ptr, i32, ptr, i32, float, [2 x i32], ptr, i64, ptr, ptr, i64, %union.pthread_mutex_t, i64, ptr }
%struct.DitherSettings = type { i32, [512 x i32], [16 x [16 x i32]] }
%struct.ImageRect = type { i32, i32, i32, i32, ptr, ptr, i32, i32, i32 }
%struct.ImageFormat = type { [4 x i32], [4 x i32], i32, i32, i32, ptr, i32, i32, ptr, i32, ptr }
%union.pthread_mutex_t = type { %struct.__pthread_mutex_s }
%struct.__pthread_mutex_s = type { i32, i32, i32, i32, i32, i16, i16, %struct.__pthread_internal_list }
%struct.__pthread_internal_list = type { ptr, ptr }

; Function Attrs: nounwind uwtable
define zeroext i8 @Java_java_awt_SplashScreen__1isVisible(ptr noundef %0, ptr noundef %1, i64 noundef %2) #0 {
  %4 = alloca i8, align 1
  %5 = alloca ptr, align 8
  %6 = alloca ptr, align 8
  %7 = alloca i64, align 8
  %8 = alloca ptr, align 8
  store ptr %0, ptr %5, align 8
  store ptr %1, ptr %6, align 8
  store i64 %2, ptr %7, align 8
  %9 = load i64, ptr %7, align 8
  %10 = inttoptr i64 %9 to ptr
  store ptr %10, ptr %8, align 8
  %11 = load ptr, ptr %8, align 8
  %12 = icmp ne ptr %11, null
  br i1 %12, label %14, label %13

13:                                               ; preds = %3
  store i8 0, ptr %4, align 1
  br label %21

14:                                               ; preds = %3
  %15 = load ptr, ptr %8, align 8
  %16 = getelementptr inbounds %struct.Splash, ptr %15, i32 0, i32 21
  %17 = load i32, ptr %16, align 4
  %18 = icmp sgt i32 %17, 0
  %19 = select i1 %18, i32 1, i32 0
  %20 = trunc i32 %19 to i8
  store i8 %20, ptr %4, align 1
  br label %21

21:                                               ; preds = %14, %13
  %22 = load i8, ptr %4, align 1
  ret i8 %22
}