; Function Attrs: mustprogress nofree norecurse nosync nounwind willreturn memory(read, inaccessiblemem: none) uwtable
define zeroext range(i8 0, 2) i8 @Java_java_awt_SplashScreen__1isVisible(ptr nocapture noundef readnone %0, ptr nocapture noundef readnone %1, i64 noundef %2) local_unnamed_addr #5 {
  %.not = icmp eq i64 %2, 0
  br i1 %.not, label %10, label %4

4:                                                ; preds = %3
  %5 = inttoptr i64 %2 to ptr
  %6 = getelementptr inbounds i8, ptr %5, i64 11668
  %7 = load i32, ptr %6, align 4
  %8 = icmp sgt i32 %7, 0
  %9 = zext i1 %8 to i8
  br label %10

10:                                               ; preds = %3, %4
  %.0 = phi i8 [ %9, %4 ], [ 0, %3 ]
  ret i8 %.0
}